; ModuleID = '37/411.c'
source_filename = "37/411.c"
target datalayout = "e-m:e-p270:32:32-p271:32:32-p272:64:64-i64:64-f80:128-n8:16:32:64-S128"
target triple = "x86_64-pc-linux-gnu"

@.str = private unnamed_addr constant [3 x i8] c"%d\00", align 1
@.str.1 = private unnamed_addr constant [3 x i8] c"%s\00", align 1
@.str.2 = private unnamed_addr constant [4 x i8] c"%s\0A\00", align 1

; Function Attrs: noinline nounwind uwtable
define dso_local i32 @main() #0 {
  %1 = alloca i32, align 4
  %2 = alloca [100000 x i8], align 16
  %3 = alloca [10000 x [3 x i8]], align 16
  %4 = alloca [10 x i8], align 1
  %5 = alloca i32, align 4
  %6 = alloca i32, align 4
  %7 = alloca i32, align 4
  %8 = alloca i32, align 4
  %9 = alloca i32, align 4
  %10 = alloca i32, align 4
  store i32 0, i32* %1, align 4
  %11 = call i32 (i8*, ...) @__isoc99_scanf(i8* getelementptr inbounds ([3 x i8], [3 x i8]* @.str, i64 0, i64 0), i32* %9)
  store i32 0, i32* %5, align 4
  br label %12

12:                                               ; preds = %97, %0
  %13 = load i32, i32* %5, align 4
  %14 = load i32, i32* %9, align 4
  %15 = sub nsw i32 %14, 1
  %16 = icmp sle i32 %13, %15
  br i1 %16, label %17, label %100

17:                                               ; preds = %12
  %18 = getelementptr inbounds [100000 x i8], [100000 x i8]* %2, i64 0, i64 0
  %19 = call i32 (i8*, ...) @__isoc99_scanf(i8* getelementptr inbounds ([3 x i8], [3 x i8]* @.str.1, i64 0, i64 0), i8* %18)
  store i32 0, i32* %6, align 4
  br label %20

20:                                               ; preds = %93, %17
  %21 = load i32, i32* %6, align 4
  %22 = sext i32 %21 to i64
  %23 = getelementptr inbounds [100000 x i8], [100000 x i8]* %2, i64 0, i64 0
  %24 = call i64 @strlen(i8* %23) #3
  %25 = sub i64 %24, 1
  %26 = icmp ule i64 %22, %25
  br i1 %26, label %27, label %96

27:                                               ; preds = %20
  store i32 0, i32* %10, align 4
  %28 = load i32, i32* %6, align 4
  %29 = sext i32 %28 to i64
  %30 = getelementptr inbounds [100000 x i8], [100000 x i8]* %2, i64 0, i64 %29
  %31 = load i8, i8* %30, align 1
  %32 = getelementptr inbounds [10 x i8], [10 x i8]* %4, i64 0, i64 0
  store i8 %31, i8* %32, align 1
  %33 = getelementptr inbounds [10 x i8], [10 x i8]* %4, i64 0, i64 1
  store i8 0, i8* %33, align 1
  store i32 0, i32* %7, align 4
  br label %34

34:                                               ; preds = %55, %27
  %35 = load i32, i32* %7, align 4
  %36 = sext i32 %35 to i64
  %37 = getelementptr inbounds [100000 x i8], [100000 x i8]* %2, i64 0, i64 0
  %38 = call i64 @strlen(i8* %37) #3
  %39 = sub i64 %38, 1
  %40 = icmp ule i64 %36, %39
  br i1 %40, label %41, label %58

41:                                               ; preds = %34
  %42 = load i32, i32* %7, align 4
  %43 = sext i32 %42 to i64
  %44 = getelementptr inbounds [100000 x i8], [100000 x i8]* %2, i64 0, i64 %43
  %45 = load i8, i8* %44, align 1
  %46 = sext i8 %45 to i32
  %47 = getelementptr inbounds [10 x i8], [10 x i8]* %4, i64 0, i64 0
  %48 = load i8, i8* %47, align 1
  %49 = sext i8 %48 to i32
  %50 = icmp eq i32 %46, %49
  br i1 %50, label %51, label %54

51:                                               ; preds = %41
  %52 = load i32, i32* %10, align 4
  %53 = add nsw i32 %52, 1
  store i32 %53, i32* %10, align 4
  br label %54

54:                                               ; preds = %51, %41
  br label %55

55:                                               ; preds = %54
  %56 = load i32, i32* %7, align 4
  %57 = add nsw i32 %56, 1
  store i32 %57, i32* %7, align 4
  br label %34

58:                                               ; preds = %34
  %59 = load i32, i32* %10, align 4
  %60 = icmp eq i32 %59, 1
  br i1 %60, label %61, label %72

61:                                               ; preds = %58
  %62 = getelementptr inbounds [10 x i8], [10 x i8]* %4, i64 0, i64 0
  %63 = load i8, i8* %62, align 1
  %64 = load i32, i32* %5, align 4
  %65 = sext i32 %64 to i64
  %66 = getelementptr inbounds [10000 x [3 x i8]], [10000 x [3 x i8]]* %3, i64 0, i64 %65
  %67 = getelementptr inbounds [3 x i8], [3 x i8]* %66, i64 0, i64 0
  store i8 %63, i8* %67, align 1
  %68 = load i32, i32* %5, align 4
  %69 = sext i32 %68 to i64
  %70 = getelementptr inbounds [10000 x [3 x i8]], [10000 x [3 x i8]]* %3, i64 0, i64 %69
  %71 = getelementptr inbounds [3 x i8], [3 x i8]* %70, i64 0, i64 1
  store i8 0, i8* %71, align 1
  br label %96

72:                                               ; preds = %58
  %73 = load i32, i32* %6, align 4
  %74 = sext i32 %73 to i64
  %75 = getelementptr inbounds [100000 x i8], [100000 x i8]* %2, i64 0, i64 0
  %76 = call i64 @strlen(i8* %75) #3
  %77 = sub i64 %76, 1
  %78 = icmp eq i64 %74, %77
  br i1 %78, label %79, label %92

79:                                               ; preds = %72
  %80 = load i32, i32* %5, align 4
  %81 = sext i32 %80 to i64
  %82 = getelementptr inbounds [10000 x [3 x i8]], [10000 x [3 x i8]]* %3, i64 0, i64 %81
  %83 = getelementptr inbounds [3 x i8], [3 x i8]* %82, i64 0, i64 0
  store i8 110, i8* %83, align 1
  %84 = load i32, i32* %5, align 4
  %85 = sext i32 %84 to i64
  %86 = getelementptr inbounds [10000 x [3 x i8]], [10000 x [3 x i8]]* %3, i64 0, i64 %85
  %87 = getelementptr inbounds [3 x i8], [3 x i8]* %86, i64 0, i64 1
  store i8 111, i8* %87, align 1
  %88 = load i32, i32* %5, align 4
  %89 = sext i32 %88 to i64
  %90 = getelementptr inbounds [10000 x [3 x i8]], [10000 x [3 x i8]]* %3, i64 0, i64 %89
  %91 = getelementptr inbounds [3 x i8], [3 x i8]* %90, i64 0, i64 2
  store i8 0, i8* %91, align 1
  br label %92

92:                                               ; preds = %79, %72
  br label %93

93:                                               ; preds = %92
  %94 = load i32, i32* %6, align 4
  %95 = add nsw i32 %94, 1
  store i32 %95, i32* %6, align 4
  br label %20

96:                                               ; preds = %61, %20
  br label %97

97:                                               ; preds = %96
  %98 = load i32, i32* %5, align 4
  %99 = add nsw i32 %98, 1
  store i32 %99, i32* %5, align 4
  br label %12

100:                                              ; preds = %12
  store i32 0, i32* %6, align 4
  br label %101

101:                                              ; preds = %112, %100
  %102 = load i32, i32* %6, align 4
  %103 = load i32, i32* %9, align 4
  %104 = sub nsw i32 %103, 1
  %105 = icmp sle i32 %102, %104
  br i1 %105, label %106, label %115

106:                                              ; preds = %101
  %107 = load i32, i32* %6, align 4
  %108 = sext i32 %107 to i64
  %109 = getelementptr inbounds [10000 x [3 x i8]], [10000 x [3 x i8]]* %3, i64 0, i64 %108
  %110 = getelementptr inbounds [3 x i8], [3 x i8]* %109, i64 0, i64 0
  %111 = call i32 (i8*, ...) @printf(i8* getelementptr inbounds ([4 x i8], [4 x i8]* @.str.2, i64 0, i64 0), i8* %110)
  br label %112

112:                                              ; preds = %106
  %113 = load i32, i32* %6, align 4
  %114 = add nsw i32 %113, 1
  store i32 %114, i32* %6, align 4
  br label %101

115:                                              ; preds = %101
  ret i32 0
}

declare dso_local i32 @__isoc99_scanf(i8*, ...) #1

; Function Attrs: nounwind readonly
declare dso_local i64 @strlen(i8*) #2

declare dso_local i32 @printf(i8*, ...) #1


!llvm.module.flags = !{!0}
!llvm.ident = !{!1}

!0 = !{i32 1, !"wchar_size", i32 4}
!1 = !{!"clang version 10.0.0-4ubuntu1 "}
